(imatplotlib.font_manager
FontManager
p1
(dp2
S'afm_lookup_cache'
p3
(dp4
sS'ttflist'
p5
(lp6
ccopy_reg
_reconstructor
p7
(cmatplotlib.font_manager
FontEntry
p8
c__builtin__
object
p9
NtRp10
(dp11
S'style'
p12
S'normal'
p13
sS'name'
p14
S'cmb10'
p15
sS'weight'
p16
I400
sS'stretch'
p17
g13
sS'variant'
p18
g13
sS'fname'
p19
S'/usr/share/matplotlib/mpl-data/fonts/ttf/cmb10.ttf'
p20
sS'size'
p21
S'scalable'
p22
sbag7
(g8
g9
NtRp23
(dp24
g12
g13
sg14
S'cmex10'
p25
sg16
I400
sg17
g13
sg18
g13
sg19
S'/usr/share/matplotlib/mpl-data/fonts/ttf/cmex10.ttf'
p26
sg21
g22
sbag7
(g8
g9
NtRp27
(dp28
g12
S'italic'
p29
sg14
S'STIXNonUnicode'
p30
sg16
I400
sg17
g13
sg18
g13
sg19
S'/usr/share/matplotlib/mpl-data/fonts/ttf/STIXNonUniIta.ttf'
p31
sg21
g22
sbag7
(g8
g9
NtRp32
(dp33
g12
g13
sg14
S'STIXNonUnicode'
p34
sg16
I400
sg17
g13
sg18
g13
sg19
S'/usr/share/matplotlib/mpl-data/fonts/ttf/STIXNonUni.ttf'
p35
sg21
g22
sbag7
(g8
g9
NtRp36
(dp37
g12
g13
sg14
S'STIXSize5'
p38
sg16
I400
sg17
g13
sg18
g13
sg19
S'/usr/share/matplotlib/mpl-data/fonts/ttf/STIXSiz5Sym.ttf'
p39
sg21
g22
sbag7
(g8
g9
NtRp40
(dp41
g12
g13
sg14
S'cmtt10'
p42
sg16
I400
sg17
g13
sg18
g13
sg19
S'/usr/share/matplotlib/mpl-data/fonts/ttf/cmtt10.ttf'
p43
sg21
g22
sbag7
(g8
g9
NtRp44
(dp45
g12
g13
sg14
S'STIXGeneral'
p46
sg16
I400
sg17
g13
sg18
g13
sg19
S'/usr/share/matplotlib/mpl-data/fonts/ttf/STIXGeneral.ttf'
p47
sg21
g22
sbag7
(g8
g9
NtRp48
(dp49
g12
g29
sg14
S'STIXNonUnicode'
p50
sg16
I700
sg17
g13
sg18
g13
sg19
S'/usr/share/matplotlib/mpl-data/fonts/ttf/STIXNonUniBolIta.ttf'
p51
sg21
g22
sbag7
(g8
g9
NtRp52
(dp53
g12
g13
sg14
S'STIXSize3'
p54
sg16
I700
sg17
g13
sg18
g13
sg19
S'/usr/share/matplotlib/mpl-data/fonts/ttf/STIXSiz3SymBol.ttf'
p55
sg21
g22
sbag7
(g8
g9
NtRp56
(dp57
g12
g13
sg14
S'STIXSize3'
p58
sg16
I400
sg17
g13
sg18
g13
sg19
S'/usr/share/matplotlib/mpl-data/fonts/ttf/STIXSiz3Sym.ttf'
p59
sg21
g22
sbag7
(g8
g9
NtRp60
(dp61
g12
g13
sg14
S'STIXSize2'
p62
sg16
I400
sg17
g13
sg18
g13
sg19
S'/usr/share/matplotlib/mpl-data/fonts/ttf/STIXSiz2Sym.ttf'
p63
sg21
g22
sbag7
(g8
g9
NtRp64
(dp65
g12
g13
sg14
S'STIXGeneral'
p66
sg16
I700
sg17
g13
sg18
g13
sg19
S'/usr/share/matplotlib/mpl-data/fonts/ttf/STIXGeneralBol.ttf'
p67
sg21
g22
sbag7
(g8
g9
NtRp68
(dp69
g12
g13
sg14
S'cmr10'
p70
sg16
I400
sg17
g13
sg18
g13
sg19
S'/usr/share/matplotlib/mpl-data/fonts/ttf/cmr10.ttf'
p71
sg21
g22
sbag7
(g8
g9
NtRp72
(dp73
g12
g13
sg14
S'STIXSize2'
p74
sg16
I700
sg17
g13
sg18
g13
sg19
S'/usr/share/matplotlib/mpl-data/fonts/ttf/STIXSiz2SymBol.ttf'
p75
sg21
g22
sbag7
(g8
g9
NtRp76
(dp77
g12
g13
sg14
S'cmsy10'
p78
sg16
I400
sg17
g13
sg18
g13
sg19
S'/usr/share/matplotlib/mpl-data/fonts/ttf/cmsy10.ttf'
p79
sg21
g22
sbag7
(g8
g9
NtRp80
(dp81
g12
g13
sg14
S'cmss10'
p82
sg16
I400
sg17
g13
sg18
g13
sg19
S'/usr/share/matplotlib/mpl-data/fonts/ttf/cmss10.ttf'
p83
sg21
g22
sbag7
(g8
g9
NtRp84
(dp85
g12
g13
sg14
S'STIXSize1'
p86
sg16
I700
sg17
g13
sg18
g13
sg19
S'/usr/share/matplotlib/mpl-data/fonts/ttf/STIXSiz1SymBol.ttf'
p87
sg21
g22
sbag7
(g8
g9
NtRp88
(dp89
g12
g29
sg14
S'STIXGeneral'
p90
sg16
I400
sg17
g13
sg18
g13
sg19
S'/usr/share/matplotlib/mpl-data/fonts/ttf/STIXGeneralItalic.ttf'
p91
sg21
g22
sbag7
(g8
g9
NtRp92
(dp93
g12
g13
sg14
S'STIXSize4'
p94
sg16
I700
sg17
g13
sg18
g13
sg19
S'/usr/share/matplotlib/mpl-data/fonts/ttf/STIXSiz4SymBol.ttf'
p95
sg21
g22
sbag7
(g8
g9
NtRp96
(dp97
g12
g13
sg14
S'STIXSize4'
p98
sg16
I400
sg17
g13
sg18
g13
sg19
S'/usr/share/matplotlib/mpl-data/fonts/ttf/STIXSiz4Sym.ttf'
p99
sg21
g22
sbag7
(g8
g9
NtRp100
(dp101
g12
g13
sg14
S'STIXSize1'
p102
sg16
I400
sg17
g13
sg18
g13
sg19
S'/usr/share/matplotlib/mpl-data/fonts/ttf/STIXSiz1Sym.ttf'
p103
sg21
g22
sbag7
(g8
g9
NtRp104
(dp105
g12
g13
sg14
S'cmmi10'
p106
sg16
I400
sg17
g13
sg18
g13
sg19
S'/usr/share/matplotlib/mpl-data/fonts/ttf/cmmi10.ttf'
p107
sg21
g22
sbag7
(g8
g9
NtRp108
(dp109
g12
g13
sg14
S'STIXNonUnicode'
p110
sg16
I700
sg17
g13
sg18
g13
sg19
S'/usr/share/matplotlib/mpl-data/fonts/ttf/STIXNonUniBol.ttf'
p111
sg21
g22
sbag7
(g8
g9
NtRp112
(dp113
g12
g29
sg14
S'STIXGeneral'
p114
sg16
I700
sg17
g13
sg18
g13
sg19
S'/usr/share/matplotlib/mpl-data/fonts/ttf/STIXGeneralBolIta.ttf'
p115
sg21
g22
sbag7
(g8
g9
NtRp116
(dp117
g12
g13
sg14
S'DejaVu Sans Mono'
p118
sg16
I700
sg17
g13
sg18
g13
sg19
S'/usr/share/fonts/truetype/ttf-dejavu/DejaVuSansMono-Bold.ttf'
p119
sg21
g22
sbag7
(g8
g9
NtRp120
(dp121
g12
S'oblique'
p122
sg14
S'DejaVu Sans'
p123
sg16
I400
sg17
S'condensed'
p124
sg18
g13
sg19
S'/usr/share/fonts/truetype/ttf-dejavu/DejaVuSansCondensed-Oblique.ttf'
p125
sg21
g22
sbag7
(g8
g9
NtRp126
(dp127
g12
g13
sg14
S'DejaVu Sans'
p128
sg16
I400
sg17
g124
sg18
g13
sg19
S'/usr/share/fonts/truetype/ttf-dejavu/DejaVuSansCondensed.ttf'
p129
sg21
g22
sbag7
(g8
g9
NtRp130
(dp131
g12
g29
sg14
S'DejaVu Serif'
p132
sg16
I400
sg17
g13
sg18
g13
sg19
S'/usr/share/fonts/truetype/ttf-dejavu/DejaVuSerif-Italic.ttf'
p133
sg21
g22
sbag7
(g8
g9
NtRp134
(dp135
g12
g13
sg14
S'wasy10'
p136
sg16
I400
sg17
g13
sg18
g13
sg19
S'/usr/share/fonts/truetype/ttf-lyx/wasy10.ttf'
p137
sg21
g22
sbag7
(g8
g9
NtRp138
(dp139
g12
g29
sg14
S'DejaVu Serif'
p140
sg16
I700
sg17
g13
sg18
g13
sg19
S'/usr/share/fonts/truetype/ttf-dejavu/DejaVuSerif-BoldItalic.ttf'
p141
sg21
g22
sbag7
(g8
g9
NtRp142
(dp143
g12
g13
sg14
S'DejaVu Sans'
p144
sg16
I400
sg17
g13
sg18
g13
sg19
S'/usr/share/fonts/truetype/ttf-dejavu/DejaVuSans.ttf'
p145
sg21
g22
sbag7
(g8
g9
NtRp146
(dp147
g12
g13
sg14
S'esint10'
p148
sg16
I400
sg17
g13
sg18
g13
sg19
S'/usr/share/fonts/truetype/ttf-lyx/esint10.ttf'
p149
sg21
g22
sbag7
(g8
g9
NtRp150
(dp151
g12
g13
sg14
S'DejaVu Sans Mono'
p152
sg16
I400
sg17
g13
sg18
g13
sg19
S'/usr/share/fonts/truetype/ttf-dejavu/DejaVuSansMono.ttf'
p153
sg21
g22
sbag7
(g8
g9
NtRp154
(dp155
g12
g122
sg14
S'DejaVu Sans Mono'
p156
sg16
I400
sg17
g13
sg18
g13
sg19
S'/usr/share/fonts/truetype/ttf-dejavu/DejaVuSansMono-Oblique.ttf'
p157
sg21
g22
sbag7
(g8
g9
NtRp158
(dp159
g12
g13
sg14
S'DejaVu Serif'
p160
sg16
I700
sg17
g124
sg18
g13
sg19
S'/usr/share/fonts/truetype/ttf-dejavu/DejaVuSerifCondensed-Bold.ttf'
p161
sg21
g22
sbag7
(g8
g9
NtRp162
(dp163
g12
g13
sg14
S'DejaVu Serif'
p164
sg16
I700
sg17
g13
sg18
g13
sg19
S'/usr/share/fonts/truetype/ttf-dejavu/DejaVuSerif-Bold.ttf'
p165
sg21
g22
sbag7
(g8
g9
NtRp166
(dp167
g12
g29
sg14
S'DejaVu Serif'
p168
sg16
I400
sg17
g124
sg18
g13
sg19
S'/usr/share/fonts/truetype/ttf-dejavu/DejaVuSerifCondensed-Italic.ttf'
p169
sg21
g22
sbag7
(g8
g9
NtRp170
(dp171
g12
g13
sg14
S'DejaVu Serif'
p172
sg16
I400
sg17
g124
sg18
g13
sg19
S'/usr/share/fonts/truetype/ttf-dejavu/DejaVuSerifCondensed.ttf'
p173
sg21
g22
sbag7
(g8
g9
NtRp174
(dp175
g12
g13
sg14
S'DejaVu Serif'
p176
sg16
I400
sg17
g13
sg18
g13
sg19
S'/usr/share/fonts/truetype/ttf-dejavu/DejaVuSerif.ttf'
p177
sg21
g22
sbag7
(g8
g9
NtRp178
(dp179
g12
g122
sg14
S'DejaVu Sans'
p180
sg16
I400
sg17
g13
sg18
g13
sg19
S'/usr/share/fonts/truetype/ttf-dejavu/DejaVuSans-Oblique.ttf'
p181
sg21
g22
sbag7
(g8
g9
NtRp182
(dp183
g12
g29
sg14
S'DejaVu Serif'
p184
sg16
I700
sg17
g124
sg18
g13
sg19
S'/usr/share/fonts/truetype/ttf-dejavu/DejaVuSerifCondensed-BoldItalic.ttf'
p185
sg21
g22
sbag7
(g8
g9
NtRp186
(dp187
g12
g13
sg14
S'eufm10'
p188
sg16
I400
sg17
g13
sg18
g13
sg19
S'/usr/share/fonts/truetype/ttf-lyx/eufm10.ttf'
p189
sg21
g22
sbag7
(g8
g9
NtRp190
(dp191
g12
g122
sg14
S'DejaVu Sans'
p192
sg16
I700
sg17
g13
sg18
g13
sg19
S'/usr/share/fonts/truetype/ttf-dejavu/DejaVuSans-BoldOblique.ttf'
p193
sg21
g22
sbag7
(g8
g9
NtRp194
(dp195
g12
g13
sg14
S'msam10'
p196
sg16
I400
sg17
g13
sg18
g13
sg19
S'/usr/share/fonts/truetype/ttf-lyx/msam10.ttf'
p197
sg21
g22
sbag7
(g8
g9
NtRp198
(dp199
g12
g122
sg14
S'DejaVu Sans Mono'
p200
sg16
I700
sg17
g13
sg18
g13
sg19
S'/usr/share/fonts/truetype/ttf-dejavu/DejaVuSansMono-BoldOblique.ttf'
p201
sg21
g22
sbag7
(g8
g9
NtRp202
(dp203
g12
g122
sg14
S'DejaVu Sans'
p204
sg16
I700
sg17
g124
sg18
g13
sg19
S'/usr/share/fonts/truetype/ttf-dejavu/DejaVuSansCondensed-BoldOblique.ttf'
p205
sg21
g22
sbag7
(g8
g9
NtRp206
(dp207
g12
g13
sg14
S'DejaVu Sans'
p208
sg16
I700
sg17
g124
sg18
g13
sg19
S'/usr/share/fonts/truetype/ttf-dejavu/DejaVuSansCondensed-Bold.ttf'
p209
sg21
g22
sbag7
(g8
g9
NtRp210
(dp211
g12
g13
sg14
S'DejaVu Sans'
p212
sg16
I700
sg17
g13
sg18
g13
sg19
S'/usr/share/fonts/truetype/ttf-dejavu/DejaVuSans-Bold.ttf'
p213
sg21
g22
sbag7
(g8
g9
NtRp214
(dp215
g12
g13
sg14
S'msbm10'
p216
sg16
I400
sg17
g13
sg18
g13
sg19
S'/usr/share/fonts/truetype/ttf-lyx/msbm10.ttf'
p217
sg21
g22
sbag7
(g8
g9
NtRp218
(dp219
g12
g13
sg14
S'DejaVu Sans'
p220
sg16
I200
sg17
g13
sg18
g13
sg19
S'/usr/share/fonts/truetype/ttf-dejavu/DejaVuSans-ExtraLight.ttf'
p221
sg21
g22
sbasS'ttffiles'
p222
(lp223
S'/usr/share/matplotlib/mpl-data/fonts/ttf/cmb10.ttf'
p224
aS'/usr/share/matplotlib/mpl-data/fonts/ttf/cmex10.ttf'
p225
aS'/usr/share/matplotlib/mpl-data/fonts/ttf/STIXNonUniIta.ttf'
p226
aS'/usr/share/matplotlib/mpl-data/fonts/ttf/STIXNonUni.ttf'
p227
aS'/usr/share/matplotlib/mpl-data/fonts/ttf/STIXSiz5Sym.ttf'
p228
aS'/usr/share/matplotlib/mpl-data/fonts/ttf/cmtt10.ttf'
p229
aS'/usr/share/matplotlib/mpl-data/fonts/ttf/STIXGeneral.ttf'
p230
aS'/usr/share/matplotlib/mpl-data/fonts/ttf/STIXNonUniBolIta.ttf'
p231
aS'/usr/share/matplotlib/mpl-data/fonts/ttf/STIXSiz3SymBol.ttf'
p232
aS'/usr/share/matplotlib/mpl-data/fonts/ttf/STIXSiz3Sym.ttf'
p233
aS'/usr/share/matplotlib/mpl-data/fonts/ttf/STIXSiz2Sym.ttf'
p234
aS'/usr/share/matplotlib/mpl-data/fonts/ttf/STIXGeneralBol.ttf'
p235
aS'/usr/share/matplotlib/mpl-data/fonts/ttf/cmr10.ttf'
p236
aS'/usr/share/matplotlib/mpl-data/fonts/ttf/STIXSiz2SymBol.ttf'
p237
aS'/usr/share/matplotlib/mpl-data/fonts/ttf/cmsy10.ttf'
p238
aS'/usr/share/matplotlib/mpl-data/fonts/ttf/cmss10.ttf'
p239
aS'/usr/share/matplotlib/mpl-data/fonts/ttf/STIXSiz1SymBol.ttf'
p240
aS'/usr/share/matplotlib/mpl-data/fonts/ttf/STIXGeneralItalic.ttf'
p241
aS'/usr/share/matplotlib/mpl-data/fonts/ttf/STIXSiz4SymBol.ttf'
p242
aS'/usr/share/matplotlib/mpl-data/fonts/ttf/STIXSiz4Sym.ttf'
p243
aS'/usr/share/matplotlib/mpl-data/fonts/ttf/STIXSiz1Sym.ttf'
p244
aS'/usr/share/matplotlib/mpl-data/fonts/ttf/cmmi10.ttf'
p245
aS'/usr/share/matplotlib/mpl-data/fonts/ttf/STIXNonUniBol.ttf'
p246
aS'/usr/share/matplotlib/mpl-data/fonts/ttf/STIXGeneralBolIta.ttf'
p247
aS'/usr/share/fonts/truetype/ttf-lyx/cmsy10.ttf'
p248
aS'/usr/share/fonts/truetype/ttf-dejavu/DejaVuSansMono-Bold.ttf'
p249
aS'/usr/share/fonts/truetype/ttf-dejavu/DejaVuSansCondensed-Oblique.ttf'
p250
aS'/usr/share/fonts/truetype/ttf-dejavu/DejaVuSansCondensed.ttf'
p251
aS'/usr/share/fonts/truetype/ttf-dejavu/DejaVuSerif-Italic.ttf'
p252
aS'/usr/share/fonts/truetype/ttf-lyx/wasy10.ttf'
p253
aS'/usr/share/fonts/truetype/ttf-dejavu/DejaVuSerif-BoldItalic.ttf'
p254
aS'/usr/share/fonts/truetype/ttf-dejavu/DejaVuSans.ttf'
p255
aS'/usr/share/fonts/truetype/ttf-lyx/esint10.ttf'
p256
aS'/usr/share/fonts/truetype/ttf-dejavu/DejaVuSansMono.ttf'
p257
aS'/usr/share/fonts/truetype/ttf-lyx/cmmi10.ttf'
p258
aS'/usr/share/fonts/truetype/ttf-dejavu/DejaVuSansMono-Oblique.ttf'
p259
aS'/usr/share/fonts/truetype/ttf-dejavu/DejaVuSerifCondensed-Bold.ttf'
p260
aS'/usr/share/fonts/truetype/ttf-dejavu/DejaVuSerif-Bold.ttf'
p261
aS'/usr/share/fonts/truetype/ttf-dejavu/DejaVuSerifCondensed-Italic.ttf'
p262
aS'/usr/share/fonts/truetype/ttf-dejavu/DejaVuSerifCondensed.ttf'
p263
aS'/usr/share/fonts/truetype/ttf-dejavu/DejaVuSerif.ttf'
p264
aS'/usr/share/fonts/truetype/ttf-dejavu/DejaVuSans-Oblique.ttf'
p265
aS'/usr/share/fonts/truetype/ttf-dejavu/DejaVuSerifCondensed-BoldItalic.ttf'
p266
aS'/usr/share/fonts/truetype/ttf-lyx/eufm10.ttf'
p267
aS'/usr/share/fonts/truetype/ttf-dejavu/DejaVuSans-BoldOblique.ttf'
p268
aS'/usr/share/fonts/truetype/ttf-lyx/msam10.ttf'
p269
aS'/usr/share/fonts/truetype/ttf-lyx/cmr10.ttf'
p270
aS'/usr/share/fonts/truetype/ttf-dejavu/DejaVuSansMono-BoldOblique.ttf'
p271
aS'/usr/share/fonts/truetype/ttf-dejavu/DejaVuSansCondensed-BoldOblique.ttf'
p272
aS'/usr/share/fonts/truetype/ttf-dejavu/DejaVuSansCondensed-Bold.ttf'
p273
aS'/usr/share/fonts/truetype/ttf-dejavu/DejaVuSans-Bold.ttf'
p274
aS'/usr/share/fonts/truetype/ttf-lyx/msbm10.ttf'
p275
aS'/usr/share/fonts/truetype/ttf-dejavu/DejaVuSans-ExtraLight.ttf'
p276
aS'/usr/share/fonts/truetype/ttf-lyx/cmex10.ttf'
p277
asS'_FontManager__default_weight'
p278
g13
sS'ttf_lookup_cache'
p279
(dp280
sS'default_size'
p281
NsS'defaultFont'
p282
g224
sS'afmfiles'
p283
(lp284
S'/usr/share/matplotlib/mpl-data/fonts/afm/pagko8a.afm'
p285
aS'/usr/share/matplotlib/mpl-data/fonts/afm/pzcmi8a.afm'
p286
aS'/usr/share/matplotlib/mpl-data/fonts/afm/phvl8a.afm'
p287
aS'/usr/share/matplotlib/mpl-data/fonts/afm/putbi8a.afm'
p288
aS'/usr/share/matplotlib/mpl-data/fonts/afm/phvro8an.afm'
p289
aS'/usr/share/matplotlib/mpl-data/fonts/afm/pbkd8a.afm'
p290
aS'/usr/share/matplotlib/mpl-data/fonts/afm/pncri8a.afm'
p291
aS'/usr/share/matplotlib/mpl-data/fonts/afm/pcrb8a.afm'
p292
aS'/usr/share/matplotlib/mpl-data/fonts/afm/phvr8a.afm'
p293
aS'/usr/share/matplotlib/mpl-data/fonts/afm/putb8a.afm'
p294
aS'/usr/share/matplotlib/mpl-data/fonts/afm/pncb8a.afm'
p295
aS'/usr/share/matplotlib/mpl-data/fonts/afm/pncbi8a.afm'
p296
aS'/usr/share/matplotlib/mpl-data/fonts/afm/cmex10.afm'
p297
aS'/usr/share/matplotlib/mpl-data/fonts/afm/cmtt10.afm'
p298
aS'/usr/share/matplotlib/mpl-data/fonts/afm/phvr8an.afm'
p299
aS'/usr/share/matplotlib/mpl-data/fonts/afm/phvro8a.afm'
p300
aS'/usr/share/matplotlib/mpl-data/fonts/afm/ptmr8a.afm'
p301
aS'/usr/share/matplotlib/mpl-data/fonts/afm/pplbi8a.afm'
p302
aS'/usr/share/matplotlib/mpl-data/fonts/afm/cmsy10.afm'
p303
aS'/usr/share/matplotlib/mpl-data/fonts/afm/pagk8a.afm'
p304
aS'/usr/share/matplotlib/mpl-data/fonts/afm/pcrr8a.afm'
p305
aS'/usr/share/matplotlib/mpl-data/fonts/afm/cmmi10.afm'
p306
aS'/usr/share/matplotlib/mpl-data/fonts/afm/pplb8a.afm'
p307
aS'/usr/share/matplotlib/mpl-data/fonts/afm/pbkdi8a.afm'
p308
aS'/usr/share/matplotlib/mpl-data/fonts/afm/phvbo8a.afm'
p309
aS'/usr/share/matplotlib/mpl-data/fonts/afm/cmr10.afm'
p310
aS'/usr/share/matplotlib/mpl-data/fonts/afm/pagdo8a.afm'
p311
aS'/usr/share/matplotlib/mpl-data/fonts/afm/psyr.afm'
p312
aS'/usr/share/matplotlib/mpl-data/fonts/afm/phvlo8a.afm'
p313
aS'/usr/share/matplotlib/mpl-data/fonts/afm/phvb8a.afm'
p314
aS'/usr/share/matplotlib/mpl-data/fonts/afm/pzdr.afm'
p315
aS'/usr/share/matplotlib/mpl-data/fonts/afm/ptmri8a.afm'
p316
aS'/usr/share/matplotlib/mpl-data/fonts/afm/pcrbo8a.afm'
p317
aS'/usr/share/matplotlib/mpl-data/fonts/afm/pplr8a.afm'
p318
aS'/usr/share/matplotlib/mpl-data/fonts/afm/pbkl8a.afm'
p319
aS'/usr/share/matplotlib/mpl-data/fonts/afm/pcrro8a.afm'
p320
aS'/usr/share/matplotlib/mpl-data/fonts/afm/ptmb8a.afm'
p321
aS'/usr/share/matplotlib/mpl-data/fonts/afm/putri8a.afm'
p322
aS'/usr/share/matplotlib/mpl-data/fonts/afm/pplri8a.afm'
p323
aS'/usr/share/matplotlib/mpl-data/fonts/afm/ptmbi8a.afm'
p324
aS'/usr/share/matplotlib/mpl-data/fonts/afm/pbkli8a.afm'
p325
aS'/usr/share/matplotlib/mpl-data/fonts/afm/putr8a.afm'
p326
aS'/usr/share/matplotlib/mpl-data/fonts/afm/pagd8a.afm'
p327
aS'/usr/share/matplotlib/mpl-data/fonts/afm/pncr8a.afm'
p328
aS'/usr/share/matplotlib/mpl-data/fonts/afm/phvbo8an.afm'
p329
aS'/usr/share/matplotlib/mpl-data/fonts/afm/phvb8an.afm'
p330
aS'/usr/share/fonts/type1/gsfonts/n021024l.afm'
p331
aS'/usr/share/fonts/type1/gsfonts/s050000l.afm'
p332
aS'/usr/share/fonts/type1/gsfonts/n021004l.afm'
p333
aS'/usr/share/fonts/type1/gsfonts/n019024l.afm'
p334
aS'/usr/share/fonts/type1/gsfonts/d050000l.afm'
p335
aS'/usr/share/fonts/type1/gsfonts/p052004l.afm'
p336
aS'/usr/share/fonts/type1/gsfonts/n019044l.afm'
p337
aS'/usr/share/fonts/type1/gsfonts/b018012l.afm'
p338
aS'/usr/share/fonts/type1/gsfonts/n022003l.afm'
p339
aS'/usr/share/fonts/type1/gsfonts/c059013l.afm'
p340
aS'/usr/share/fonts/type1/gsfonts/a010033l.afm'
p341
aS'/usr/share/fonts/type1/gsfonts/c059036l.afm'
p342
aS'/usr/share/fonts/type1/gsfonts/z003034l.afm'
p343
aS'/usr/share/fonts/type1/gsfonts/n022024l.afm'
p344
aS'/usr/share/fonts/type1/gsfonts/n019043l.afm'
p345
aS'/usr/share/fonts/type1/gsfonts/n019064l.afm'
p346
aS'/usr/share/fonts/type1/gsfonts/n019003l.afm'
p347
aS'/usr/share/fonts/type1/gsfonts/p052024l.afm'
p348
aS'/usr/share/fonts/type1/gsfonts/b018035l.afm'
p349
aS'/usr/share/fonts/type1/gsfonts/a010013l.afm'
p350
aS'/usr/share/fonts/type1/gsfonts/n022004l.afm'
p351
aS'/usr/share/fonts/type1/gsfonts/a010035l.afm'
p352
aS'/usr/share/fonts/type1/gsfonts/c059033l.afm'
p353
aS'/usr/share/fonts/type1/gsfonts/n019023l.afm'
p354
aS'/usr/share/fonts/type1/gsfonts/n019063l.afm'
p355
aS'/usr/share/fonts/type1/gsfonts/p052023l.afm'
p356
aS'/usr/share/fonts/type1/gsfonts/n019004l.afm'
p357
aS'/usr/share/fonts/type1/gsfonts/p052003l.afm'
p358
aS'/usr/share/fonts/type1/gsfonts/a010015l.afm'
p359
aS'/usr/share/fonts/type1/gsfonts/b018032l.afm'
p360
aS'/usr/share/fonts/type1/gsfonts/c059016l.afm'
p361
aS'/usr/share/fonts/type1/gsfonts/n022023l.afm'
p362
aS'/usr/share/fonts/type1/gsfonts/n021023l.afm'
p363
aS'/usr/share/fonts/type1/gsfonts/n021003l.afm'
p364
aS'/usr/share/fonts/type1/gsfonts/b018015l.afm'
p365
asS'afmlist'
p366
(lp367
g7
(g8
g9
NtRp368
(dp369
g12
g29
sg14
S'ITC Avant Garde Gothic'
p370
sg16
I400
sg17
g13
sg18
g13
sg19
g285
sg21
g22
sbag7
(g8
g9
NtRp371
(dp372
g12
g29
sg14
S'ITC Zapf Chancery'
p373
sg16
I500
sg17
g13
sg18
g13
sg19
g286
sg21
g22
sbag7
(g8
g9
NtRp374
(dp375
g12
g13
sg14
S'Helvetica'
p376
sg16
I200
sg17
g13
sg18
g13
sg19
g287
sg21
g22
sbag7
(g8
g9
NtRp377
(dp378
g12
g29
sg14
S'Utopia'
p379
sg16
I700
sg17
g13
sg18
g13
sg19
g288
sg21
g22
sbag7
(g8
g9
NtRp380
(dp381
g12
g29
sg14
S'Helvetica'
p382
sg16
I500
sg17
g13
sg18
g13
sg19
g289
sg21
g22
sbag7
(g8
g9
NtRp383
(dp384
g12
g13
sg14
S'ITC Bookman'
p385
sg16
I600
sg17
g13
sg18
g13
sg19
g290
sg21
g22
sbag7
(g8
g9
NtRp386
(dp387
g12
g29
sg14
S'New Century Schoolbook'
p388
sg16
I500
sg17
g13
sg18
g13
sg19
g291
sg21
g22
sbag7
(g8
g9
NtRp389
(dp390
g12
g13
sg14
S'Courier'
p391
sg16
I700
sg17
g13
sg18
g13
sg19
g292
sg21
g22
sbag7
(g8
g9
NtRp392
(dp393
g12
g13
sg14
S'Helvetica'
p394
sg16
I500
sg17
g13
sg18
g13
sg19
g293
sg21
g22
sbag7
(g8
g9
NtRp395
(dp396
g12
g13
sg14
S'Utopia'
p397
sg16
I700
sg17
g13
sg18
g13
sg19
g294
sg21
g22
sbag7
(g8
g9
NtRp398
(dp399
g12
g13
sg14
S'New Century Schoolbook'
p400
sg16
I700
sg17
g13
sg18
g13
sg19
g295
sg21
g22
sbag7
(g8
g9
NtRp401
(dp402
g12
g29
sg14
S'New Century Schoolbook'
p403
sg16
I700
sg17
g13
sg18
g13
sg19
g296
sg21
g22
sbag7
(g8
g9
NtRp404
(dp405
g12
g13
sg14
S'Computer Modern'
p406
sg16
I500
sg17
g13
sg18
g13
sg19
g297
sg21
g22
sbag7
(g8
g9
NtRp407
(dp408
g12
g13
sg14
S'Computer Modern'
p409
sg16
I500
sg17
g13
sg18
g13
sg19
g298
sg21
g22
sbag7
(g8
g9
NtRp410
(dp411
g12
g13
sg14
S'Helvetica'
p412
sg16
I500
sg17
g13
sg18
g13
sg19
g299
sg21
g22
sbag7
(g8
g9
NtRp413
(dp414
g12
g29
sg14
S'Helvetica'
p415
sg16
I500
sg17
g13
sg18
g13
sg19
g300
sg21
g22
sbag7
(g8
g9
NtRp416
(dp417
g12
g13
sg14
S'Times'
p418
sg16
I500
sg17
g13
sg18
g13
sg19
g301
sg21
g22
sbag7
(g8
g9
NtRp419
(dp420
g12
g29
sg14
S'Palatino'
p421
sg16
I700
sg17
g13
sg18
g13
sg19
g302
sg21
g22
sbag7
(g8
g9
NtRp422
(dp423
g12
g29
sg14
S'Computer Modern'
p424
sg16
I500
sg17
g13
sg18
g13
sg19
g303
sg21
g22
sbag7
(g8
g9
NtRp425
(dp426
g12
g13
sg14
S'ITC Avant Garde Gothic'
p427
sg16
I400
sg17
g13
sg18
g13
sg19
g304
sg21
g22
sbag7
(g8
g9
NtRp428
(dp429
g12
g13
sg14
S'Courier'
p430
sg16
I500
sg17
g13
sg18
g13
sg19
g305
sg21
g22
sbag7
(g8
g9
NtRp431
(dp432
g12
g29
sg14
S'Computer Modern'
p433
sg16
I500
sg17
g13
sg18
g13
sg19
g306
sg21
g22
sbag7
(g8
g9
NtRp434
(dp435
g12
g13
sg14
S'Palatino'
p436
sg16
I700
sg17
g13
sg18
g13
sg19
g307
sg21
g22
sbag7
(g8
g9
NtRp437
(dp438
g12
g29
sg14
S'ITC Bookman'
p439
sg16
I600
sg17
g13
sg18
g13
sg19
g308
sg21
g22
sbag7
(g8
g9
NtRp440
(dp441
g12
g29
sg14
S'Helvetica'
p442
sg16
I700
sg17
g13
sg18
g13
sg19
g309
sg21
g22
sbag7
(g8
g9
NtRp443
(dp444
g12
g13
sg14
S'Computer Modern'
p445
sg16
I500
sg17
g13
sg18
g13
sg19
g310
sg21
g22
sbag7
(g8
g9
NtRp446
(dp447
g12
g29
sg14
S'ITC Avant Garde Gothic'
p448
sg16
I600
sg17
g13
sg18
g13
sg19
g311
sg21
g22
sbag7
(g8
g9
NtRp449
(dp450
g12
g13
sg14
S'Symbol'
p451
sg16
I500
sg17
g13
sg18
g13
sg19
g312
sg21
g22
sbag7
(g8
g9
NtRp452
(dp453
g12
g29
sg14
S'Helvetica'
p454
sg16
I200
sg17
g13
sg18
g13
sg19
g313
sg21
g22
sbag7
(g8
g9
NtRp455
(dp456
g12
g13
sg14
S'Helvetica'
p457
sg16
I700
sg17
g13
sg18
g13
sg19
g314
sg21
g22
sbag7
(g8
g9
NtRp458
(dp459
g12
g13
sg14
S'ITC Zapf Dingbats'
p460
sg16
I500
sg17
g13
sg18
g13
sg19
g315
sg21
g22
sbag7
(g8
g9
NtRp461
(dp462
g12
g29
sg14
S'Times'
p463
sg16
I500
sg17
g13
sg18
g13
sg19
g316
sg21
g22
sbag7
(g8
g9
NtRp464
(dp465
g12
g29
sg14
S'Courier'
p466
sg16
I700
sg17
g13
sg18
g13
sg19
g317
sg21
g22
sbag7
(g8
g9
NtRp467
(dp468
g12
g13
sg14
S'Palatino'
p469
sg16
I500
sg17
g13
sg18
g13
sg19
g318
sg21
g22
sbag7
(g8
g9
NtRp470
(dp471
g12
g13
sg14
S'ITC Bookman'
p472
sg16
I200
sg17
g13
sg18
g13
sg19
g319
sg21
g22
sbag7
(g8
g9
NtRp473
(dp474
g12
g29
sg14
S'Courier'
p475
sg16
I500
sg17
g13
sg18
g13
sg19
g320
sg21
g22
sbag7
(g8
g9
NtRp476
(dp477
g12
g13
sg14
S'Times'
p478
sg16
I700
sg17
g13
sg18
g13
sg19
g321
sg21
g22
sbag7
(g8
g9
NtRp479
(dp480
g12
g29
sg14
S'Utopia'
p481
sg16
I400
sg17
g13
sg18
g13
sg19
g322
sg21
g22
sbag7
(g8
g9
NtRp482
(dp483
g12
g29
sg14
S'Palatino'
p484
sg16
I500
sg17
g13
sg18
g13
sg19
g323
sg21
g22
sbag7
(g8
g9
NtRp485
(dp486
g12
g29
sg14
S'Times'
p487
sg16
I700
sg17
g13
sg18
g13
sg19
g324
sg21
g22
sbag7
(g8
g9
NtRp488
(dp489
g12
g29
sg14
S'ITC Bookman'
p490
sg16
I200
sg17
g13
sg18
g13
sg19
g325
sg21
g22
sbag7
(g8
g9
NtRp491
(dp492
g12
g13
sg14
S'Utopia'
p493
sg16
I400
sg17
g13
sg18
g13
sg19
g326
sg21
g22
sbag7
(g8
g9
NtRp494
(dp495
g12
g13
sg14
S'ITC Avant Garde Gothic'
p496
sg16
I600
sg17
g13
sg18
g13
sg19
g327
sg21
g22
sbag7
(g8
g9
NtRp497
(dp498
g12
g13
sg14
S'New Century Schoolbook'
p499
sg16
I500
sg17
g13
sg18
g13
sg19
g328
sg21
g22
sbag7
(g8
g9
NtRp500
(dp501
g12
g29
sg14
S'Helvetica'
p502
sg16
I700
sg17
g13
sg18
g13
sg19
g329
sg21
g22
sbag7
(g8
g9
NtRp503
(dp504
g12
g13
sg14
S'Helvetica'
p505
sg16
I700
sg17
g13
sg18
g13
sg19
g330
sg21
g22
sbag7
(g8
g9
NtRp506
(dp507
g12
g29
sg14
S'Nimbus Roman No9 L'
p508
sg16
I700
sg17
g13
sg18
g13
sg19
g331
sg21
g22
sbag7
(g8
g9
NtRp509
(dp510
g12
g13
sg14
S'Standard Symbols L'
p511
sg16
I400
sg17
g13
sg18
g13
sg19
g332
sg21
g22
sbag7
(g8
g9
NtRp512
(dp513
g12
g13
sg14
S'Nimbus Roman No9 L'
p514
sg16
I700
sg17
g13
sg18
g13
sg19
g333
sg21
g22
sbag7
(g8
g9
NtRp515
(dp516
g12
g29
sg14
S'Nimbus Sans L'
p517
sg16
I700
sg17
g13
sg18
g13
sg19
g334
sg21
g22
sbag7
(g8
g9
NtRp518
(dp519
g12
g13
sg14
S'Dingbats'
p520
sg16
I400
sg17
g13
sg18
g13
sg19
g335
sg21
g22
sbag7
(g8
g9
NtRp521
(dp522
g12
g13
sg14
S'URW Palladio L'
p523
sg16
I700
sg17
g13
sg18
g13
sg19
g336
sg21
g22
sbag7
(g8
g9
NtRp524
(dp525
g12
g13
sg14
S'Nimbus Sans L'
p526
sg16
I700
sg17
g13
sg18
g13
sg19
g337
sg21
g22
sbag7
(g8
g9
NtRp527
(dp528
g12
g13
sg14
S'URW Bookman L'
p529
sg16
I400
sg17
g13
sg18
g13
sg19
g338
sg21
g22
sbag7
(g8
g9
NtRp530
(dp531
g12
g13
sg14
S'Nimbus Mono L'
p532
sg16
I400
sg17
g13
sg18
g13
sg19
g339
sg21
g22
sbag7
(g8
g9
NtRp533
(dp534
g12
g13
sg14
S'Century Schoolbook L'
p535
sg16
I500
sg17
g13
sg18
g13
sg19
g340
sg21
g22
sbag7
(g8
g9
NtRp536
(dp537
g12
g29
sg14
S'URW Gothic L'
p538
sg16
I400
sg17
g13
sg18
g13
sg19
g341
sg21
g22
sbag7
(g8
g9
NtRp539
(dp540
g12
g29
sg14
S'Century Schoolbook L'
p541
sg16
I700
sg17
g13
sg18
g13
sg19
g342
sg21
g22
sbag7
(g8
g9
NtRp542
(dp543
g12
g29
sg14
S'URW Chancery L'
p544
sg16
I500
sg17
g13
sg18
g13
sg19
g343
sg21
g22
sbag7
(g8
g9
NtRp545
(dp546
g12
g29
sg14
S'Nimbus Mono L'
p547
sg16
I700
sg17
g13
sg18
g13
sg19
g344
sg21
g22
sbag7
(g8
g9
NtRp548
(dp549
g12
g13
sg14
S'Nimbus Sans L'
p550
sg16
I400
sg17
g13
sg18
g13
sg19
g345
sg21
g22
sbag7
(g8
g9
NtRp551
(dp552
g12
g29
sg14
S'Nimbus Sans L'
p553
sg16
I700
sg17
g13
sg18
g13
sg19
g346
sg21
g22
sbag7
(g8
g9
NtRp554
(dp555
g12
g13
sg14
S'Nimbus Sans L'
p556
sg16
I400
sg17
g13
sg18
g13
sg19
g347
sg21
g22
sbag7
(g8
g9
NtRp557
(dp558
g12
g29
sg14
S'URW Palladio L'
p559
sg16
I700
sg17
g13
sg18
g13
sg19
g348
sg21
g22
sbag7
(g8
g9
NtRp560
(dp561
g12
g29
sg14
S'URW Bookman L'
p562
sg16
I700
sg17
g13
sg18
g13
sg19
g349
sg21
g22
sbag7
(g8
g9
NtRp563
(dp564
g12
g13
sg14
S'URW Gothic L'
p565
sg16
I400
sg17
g13
sg18
g13
sg19
g350
sg21
g22
sbag7
(g8
g9
NtRp566
(dp567
g12
g13
sg14
S'Nimbus Mono L'
p568
sg16
I700
sg17
g13
sg18
g13
sg19
g351
sg21
g22
sbag7
(g8
g9
NtRp569
(dp570
g12
g29
sg14
S'URW Gothic L'
p571
sg16
I600
sg17
g13
sg18
g13
sg19
g352
sg21
g22
sbag7
(g8
g9
NtRp572
(dp573
g12
g29
sg14
S'Century Schoolbook L'
p574
sg16
I400
sg17
g13
sg18
g13
sg19
g353
sg21
g22
sbag7
(g8
g9
NtRp575
(dp576
g12
g29
sg14
S'Nimbus Sans L'
p577
sg16
I400
sg17
g13
sg18
g13
sg19
g354
sg21
g22
sbag7
(g8
g9
NtRp578
(dp579
g12
g29
sg14
S'Nimbus Sans L'
p580
sg16
I400
sg17
g13
sg18
g13
sg19
g355
sg21
g22
sbag7
(g8
g9
NtRp581
(dp582
g12
g29
sg14
S'URW Palladio L'
p583
sg16
I400
sg17
g13
sg18
g13
sg19
g356
sg21
g22
sbag7
(g8
g9
NtRp584
(dp585
g12
g13
sg14
S'Nimbus Sans L'
p586
sg16
I700
sg17
g13
sg18
g13
sg19
g357
sg21
g22
sbag7
(g8
g9
NtRp587
(dp588
g12
g13
sg14
S'URW Palladio L'
p589
sg16
I500
sg17
g13
sg18
g13
sg19
g358
sg21
g22
sbag7
(g8
g9
NtRp590
(dp591
g12
g13
sg14
S'URW Gothic L'
p592
sg16
I600
sg17
g13
sg18
g13
sg19
g359
sg21
g22
sbag7
(g8
g9
NtRp593
(dp594
g12
g29
sg14
S'URW Bookman L'
p595
sg16
I400
sg17
g13
sg18
g13
sg19
g360
sg21
g22
sbag7
(g8
g9
NtRp596
(dp597
g12
g13
sg14
S'Century Schoolbook L'
p598
sg16
I700
sg17
g13
sg18
g13
sg19
g361
sg21
g22
sbag7
(g8
g9
NtRp599
(dp600
g12
g29
sg14
S'Nimbus Mono L'
p601
sg16
I400
sg17
g13
sg18
g13
sg19
g362
sg21
g22
sbag7
(g8
g9
NtRp602
(dp603
g12
g29
sg14
S'Nimbus Roman No9 L'
p604
sg16
I400
sg17
g13
sg18
g13
sg19
g363
sg21
g22
sbag7
(g8
g9
NtRp605
(dp606
g12
g13
sg14
S'Nimbus Roman No9 L'
p607
sg16
I400
sg17
g13
sg18
g13
sg19
g364
sg21
g22
sbag7
(g8
g9
NtRp608
(dp609
g12
g13
sg14
S'URW Bookman L'
p610
sg16
I700
sg17
g13
sg18
g13
sg19
g365
sg21
g22
sbasb.